; Function Attrs: mustprogress uwtable
define void @_ZN6casadi8Sparsity4sum2ERKS0_(ptr dead_on_unwind noalias writable sret(%"class.casadi::Sparsity") align 8 %0, ptr noundef nonnull align 8 dereferenceable(8) %1) local_unnamed_addr #3 align 2 personality ptr @__gxx_personality_v0 {
  %3 = alloca %"class.casadi::Sparsity", align 8
  %4 = tail call noundef ptr @_ZNK6casadi12SharedObjectptEv(ptr noundef nonnull align 8 dereferenceable(8) %1)
  %5 = getelementptr inbounds i8, ptr %4, i64 24
  %6 = load ptr, ptr %5, align 8
  %7 = getelementptr inbounds i8, ptr %6, i64 8
  %8 = load i64, ptr %7, align 8
  call void @_ZN6casadi8Sparsity5denseExx(ptr dead_on_unwind nonnull writable sret(%"class.casadi::Sparsity") align 8 %3, i64 noundef %8, i64 noundef 1)
  invoke void @_ZN6casadi8Sparsity6mtimesERKS0_S2_(ptr dead_on_unwind writable sret(%"class.casadi::Sparsity") align 8 %0, ptr noundef nonnull align 8 dereferenceable(8) %1, ptr noundef nonnull align 8 dereferenceable(8) %3)
          to label %9 unwind label %10

9:                                                ; preds = %2
  call void @_ZN6casadi12SharedObjectD2Ev(ptr noundef nonnull align 8 dereferenceable(8) %3) #24
  ret void

10:                                               ; preds = %2
  %11 = landingpad { ptr, i32 }
          cleanup
  call void @_ZN6casadi12SharedObjectD2Ev(ptr noundef nonnull align 8 dereferenceable(8) %3) #24
  resume { ptr, i32 } %11
}